issuer :/C=AU/SP=QLD/O=Mincom Pty. Ltd./OU=CS/CN=SSLeay demo server
subject:/C=AU/SP=QLD/O=Mincom Pty. Ltd./OU=MTR/CN=Eric Young/Email=eay@mincom.oz.au
serial :010C

Certificate:
    Data:
        Version: 0 (0x0)
        Serial Number: 268 (0x10c)
        Signature Algorithm: md5withRSAEncryption
        Issuer: C=AU, SP=QLD, O=Mincom Pty. Ltd., OU=CS, 
                CN=SSLeay demo server
        Validity
            Not Before: Dec  7 15:03:05 1995
            Not After : Dec  6 15:03:05 1996
        Subject:C=AU, SP=QLD, O=Mincom Pty. Ltd., OU=MTR, CN=Eric Young, 
                Email=eay@mincom.oz.au
        Subject Public Key Info:
            Public Key Algorithm: rsaEncryption
            Public Key: (512 bit)
                Modulus:
                    00:af:0c:6e:1c:85:dd:52:fa:a1:f4:a2:18:31:2b:
                    0c:0b:8e:1a:46:77:de:40:02:46:ae:08:78:44:0b:
                    dc:c9:9e:e1:96:28:91:a6:a2:af:3e:88:6f:65:58:
                    f1:f5:b0:2c:45:ef:5d:39:58:20:2c:06:27:d7:eb:
                    87:f7:8d:42:61
                Exponent: 65537 (0x10001)
    Signature Algorithm: md5withRSAEncryption
        69:65:b4:7f:0a:f3:79:29:ff:cf:21:52:1a:34:1c:2d:89:96:
        5f:72:8d:ca:1b:94:cd:ab:33:03:f5:b2:ce:97:da:67:12:89:
        3b:51:a4:1b:64:43:5e:cb:c9:e3:3f:ee:2b:c2:0c:fd:05:c9:
        ed:fb:35:eb:cf:1d:d8:b2:eb:98

-----BEGIN X509 CERTIFICATE-----
MIIBxTCCAW8CAgEMMA0GCSqGSIb3DQEBBAUAMGAxCzAJBgNVBAYTAkFVMQwwCgYD
VQQIEwNRTEQxGTAXBgNVBAoTEE1pbmNvbSBQdHkuIEx0ZC4xCzAJBgNVBAsTAkNT
MRswGQYDVQQDExJTU0xlYXkgZGVtbyBzZXJ2ZXIwHhcNOTUxMjA3MTUwMzA1WhcN
OTYxMjA2MTUwMzA1WjB6MQswCQYDVQQGEwJBVTEMMAoGA1UECBMDUUxEMRkwFwYD
VQQKExBNaW5jb20gUHR5LiBMdGQuMQwwCgYDVQQLEwNNVFIxEzARBgNVBAMTCkVy
aWMgWW91bmcxHzAdBgkqhkiG9w0BCQEWEGVheUBtaW5jb20ub3ouYXUwXDANBgkq
hkiG9w0BAQEFAANLADBIAkEArwxuHIXdUvqh9KIYMSsMC44aRnfeQAJGrgh4RAvc
yZ7hliiRpqKvPohvZVjx9bAsRe9dOVggLAYn1+uH941CYQIDAQABMA0GCSqGSIb3
DQEBBAUAA0EAaWW0fwrzeSn/zyFSGjQcLYmWX3KNyhuUzaszA/WyzpfaZxKJO1Gk
G2RDXsvJ4z/uK8IM/QXJ7fs1688d2LLrmA==
-----END X509 CERTIFICATE-----

