issuer :/C=AU/SP=QLD/O=Mincom Pty. Ltd./OU=CS/CN=SSLeay demo server
subject:/C=AU/SP=Queensland/O=Mincom Pty Ltd/OU=MTR/CN=Eric Young/Email=eay@mincom.oz.au
serial :010D

Certificate:
    Data:
        Version: 0 (0x0)
        Serial Number: 269 (0x10d)
        Signature Algorithm: md5withRSAEncryption
        Issuer: C=AU, SP=QLD, O=Mincom Pty. Ltd., OU=CS, 
                CN=SSLeay demo server
        Validity
            Not Before: Dec  7 15:32:45 1995
            Not After : Dec  6 15:32:45 1996
        Subject:C=AU, SP=Queensland, O=Mincom Pty Ltd, OU=MTR, CN=Eric Young, 
                Email=eay@mincom.oz.au
        Subject Public Key Info:
            Public Key Algorithm: rsaEncryption
            Public Key: (512 bit)
                Modulus:
                    00:be:ac:79:49:9b:49:a9:55:38:de:72:4e:34:ba:
                    43:ae:f2:f4:33:8f:1d:04:3e:85:65:51:a5:3b:dc:
                    d6:24:fb:bd:8a:2f:bc:3e:ce:02:2c:e4:5f:f6:07:
                    58:dc:71:24:eb:ab:f2:51:75:06:f2:9c:1a:d5:44:
                    82:a5:ab:c6:ff
                Exponent: 65537 (0x10001)
    Signature Algorithm: md5withRSAEncryption
        42:f7:d7:8f:05:2f:8c:5c:4c:d4:d0:95:90:f4:47:ed:3a:96:
        62:0b:9f:fa:70:17:43:28:6f:7b:2c:60:b2:12:b6:34:d6:5c:
        17:43:27:90:80:0f:da:87:8f:f7:37:cb:0d:27:32:24:05:52:
        b1:04:86:eb:eb:a5:1f:c3:58:ea

-----BEGIN X509 CERTIFICATE-----
MIIByjCCAXQCAgENMA0GCSqGSIb3DQEBBAUAMGAxCzAJBgNVBAYTAkFVMQwwCgYD
VQQIEwNRTEQxGTAXBgNVBAoTEE1pbmNvbSBQdHkuIEx0ZC4xCzAJBgNVBAsTAkNT
MRswGQYDVQQDExJTU0xlYXkgZGVtbyBzZXJ2ZXIwHhcNOTUxMjA3MTUzMjQ1WhcN
OTYxMjA2MTUzMjQ1WjB/MQswCQYDVQQGEwJBVTETMBEGA1UECBMKUXVlZW5zbGFu
ZDEXMBUGA1UEChMOTWluY29tIFB0eSBMdGQxDDAKBgNVBAsTA01UUjETMBEGA1UE
AxMKRXJpYyBZb3VuZzEfMB0GCSqGSIb3DQEJARYQZWF5QG1pbmNvbS5vei5hdTBc
MA0GCSqGSIb3DQEBAQUAA0sAMEgCQQC+rHlJm0mpVTjeck40ukOu8vQzjx0EPoVl
UaU73NYk+72KL7w+zgIs5F/2B1jccSTrq/JRdQbynBrVRIKlq8b/AgMBAAEwDQYJ
KoZIhvcNAQEEBQADQQBC99ePBS+MXEzU0JWQ9EftOpZiC5/6cBdDKG97LGCyErY0
1lwXQyeQgA/ah4/3N8sNJzIkBVKxBIbr66Ufw1jq
-----END X509 CERTIFICATE-----

