issuer :/C=AU/SP=QLD/O=Mincom Pty. Ltd./OU=CS/CN=SSLeay demo server
subject:/CN=Eric Young/Email=eay@mincom.oz.au
serial :010E

Certificate:
    Data:
        Version: 0 (0x0)
        Serial Number: 270 (0x10e)
        Signature Algorithm: md5withRSAEncryption
        Issuer: C=AU, SP=QLD, O=Mincom Pty. Ltd., OU=CS, 
                CN=SSLeay demo server
        Validity
            Not Before: Mar 22 07:48:16 1996
            Not After : Mar 22 07:48:16 1997
        Subject:CN=Eric Young, Email=eay@mincom.oz.au
        Subject Public Key Info:
            Public Key Algorithm: rsaEncryption
            Public Key: (512 bit)
                Modulus:
                    00:b2:6e:4c:4e:53:3d:d7:35:d8:fe:6e:97:c6:ea:
                    f6:66:a6:70:8c:e2:2f:67:f9:a3:b0:f9:00:fa:dc:
                    cd:bb:ab:21:1c:ae:ae:73:d6:a8:a4:e2:a6:6b:7f:
                    8c:be:e0:90:11:22:05:63:de:ae:b7:91:d6:01:c5:
                    f5:df:bb:c2:77
                Exponent: 65537 (0x10001)
    Signature Algorithm: md5withRSAEncryption
        95:cc:29:e3:90:4c:88:0e:6e:e1:47:a2:dd:8d:5a:79:57:e7:
        ee:c7:eb:ad:87:76:3f:d3:ca:58:49:30:1f:79:1b:41:95:07:
        11:67:71:94:f5:2e:32:e9:5f:49:64:89:0c:7a:44:4b:f6:f5:
        81:5d:9e:3f:bc:58:f8:25:d9:6c

-----BEGIN X509 CERTIFICATE-----
MIIBgTCCASsCAgEOMA0GCSqGSIb3DQEBBAUAMGAxCzAJBgNVBAYTAkFVMQwwCgYD
VQQIEwNRTEQxGTAXBgNVBAoTEE1pbmNvbSBQdHkuIEx0ZC4xCzAJBgNVBAsTAkNT
MRswGQYDVQQDExJTU0xlYXkgZGVtbyBzZXJ2ZXIwHhcNOTYwMzIyMDc0ODE2WhcN
OTcwMzIyMDc0ODE2WjA2MRMwEQYDVQQDEwpFcmljIFlvdW5nMR8wHQYJKoZIhvcN
AQkBFhBlYXlAbWluY29tLm96LmF1MFwwDQYJKoZIhvcNAQEBBQADSwAwSAJBALJu
TE5TPdc12P5ul8bq9mamcIziL2f5o7D5APrczburIRyurnPWqKTipmt/jL7gkBEi
BWPerreR1gHF9d+7wncCAwEAATANBgkqhkiG9w0BAQQFAANBAJXMKeOQTIgObuFH
ot2NWnlX5+7H662Hdj/TylhJMB95G0GVBxFncZT1LjLpX0lkiQx6REv29YFdnj+8
WPgl2Ww=
-----END X509 CERTIFICATE-----

