issuer :/C=AU/SP=QLD/O=Mincom Pty. Ltd./OU=CS/CN=SSLeay demo server
subject:/CN=Eric Young
serial :010F

Certificate:
    Data:
        Version: 0 (0x0)
        Serial Number: 271 (0x10f)
        Signature Algorithm: md5withRSAEncryption
        Issuer: C=AU, SP=QLD, O=Mincom Pty. Ltd., OU=CS, 
                CN=SSLeay demo server
        Validity
            Not Before: Mar 22 07:51:52 1996
            Not After : Mar 22 07:51:52 1997
        Subject:CN=Eric Young
        Subject Public Key Info:
            Public Key Algorithm: rsaEncryption
            Public Key: (512 bit)
                Modulus:
                    00:c2:40:8f:3d:ff:4f:43:0e:d1:2e:97:f1:88:47:
                    7e:0d:b7:6e:80:32:90:42:a4:d5:23:0a:e2:fb:cb:
                    82:d4:ae:86:11:3a:b6:b1:e6:e3:e3:54:33:40:be:
                    63:42:e8:bd:5e:f3:84:0f:5e:ac:0f:c0:85:26:e7:
                    b0:3b:33:39:99
                Exponent: 65537 (0x10001)
    Signature Algorithm: md5withRSAEncryption
        af:02:96:c3:21:56:f5:40:bc:75:1c:dd:ec:fb:0f:a7:67:56:
        69:4d:75:06:af:e9:20:28:37:f2:f3:03:b8:02:c0:70:f2:a1:
        e7:f7:63:11:c4:cf:cb:e3:01:5f:13:be:48:10:e4:aa:a1:24:
        94:59:51:81:15:ae:5b:9e:46:18

-----BEGIN X509 CERTIFICATE-----
MIIBYDCCAQoCAgEPMA0GCSqGSIb3DQEBBAUAMGAxCzAJBgNVBAYTAkFVMQwwCgYD
VQQIEwNRTEQxGTAXBgNVBAoTEE1pbmNvbSBQdHkuIEx0ZC4xCzAJBgNVBAsTAkNT
MRswGQYDVQQDExJTU0xlYXkgZGVtbyBzZXJ2ZXIwHhcNOTYwMzIyMDc1MTUyWhcN
OTcwMzIyMDc1MTUyWjAVMRMwEQYDVQQDEwpFcmljIFlvdW5nMFwwDQYJKoZIhvcN
AQEBBQADSwAwSAJBAMJAjz3/T0MO0S6X8YhHfg23boAykEKk1SMK4vvLgtSuhhE6
trHm4+NUM0C+Y0LovV7zhA9erA/AhSbnsDszOZkCAwEAATANBgkqhkiG9w0BAQQF
AANBAK8ClsMhVvVAvHUc3ez7D6dnVmlNdQav6SAoN/LzA7gCwHDyoef3YxHEz8vj
AV8TvkgQ5KqhJJRZUYEVrlueRhg=
-----END X509 CERTIFICATE-----

