issuer :/C=AU/SP=QLD/O=Mincom Pty. Ltd./OU=CS/CN=SSLeay demo server
subject:/CN=Eric Youngg
serial :0110

Certificate:
    Data:
        Version: 2 (0x2)
        Serial Number: 272 (0x110)
        Signature Algorithm: md5withRSAEncryption
        Issuer: C=AU, SP=QLD, O=Mincom Pty. Ltd., OU=CS, 
                CN=SSLeay demo server
        Validity
            Not Before: Mar 22 07:59:06 1996
            Not After : Mar 22 07:59:06 1997
        Subject:CN=Eric Youngg
        Subject Public Key Info:
            Public Key Algorithm: rsaEncryption
            Public Key: (512 bit)
                Modulus:
                    00:c2:b0:13:1c:29:e1:f0:49:e0:ad:9c:b6:f4:7d:
                    c2:4d:62:9d:c0:55:fe:55:fd:6a:96:ff:53:42:b0:
                    cb:d5:c5:6e:23:ac:d1:ed:51:32:c4:28:28:f2:6d:
                    2f:69:4d:6c:76:73:b3:41:7b:d4:40:c4:0b:64:6a:
                    1d:0d:5f:a7:75
                Exponent: 65537 (0x10001)
    Signature Algorithm: md5withRSAEncryption
        25:ba:f3:12:b4:60:8f:2d:ba:19:bd:11:50:ea:36:2e:d1:91:
        34:4d:45:2a:25:74:36:b1:f2:45:1e:1e:15:6d:fe:b6:00:45:
        cf:65:83:ef:ca:09:11:bd:49:c9:5a:c4:87:ea:9f:e5:8e:85:
        06:f3:6d:24:80:f2:35:e1:42:a0

-----BEGIN X509 CERTIFICATE-----
MIIBmDCCAUKAAQICAgEQMA0GCSqGSIb3DQEBBAUAMGAxCzAJBgNVBAYTAkFVMQww
CgYDVQQIEwNRTEQxGTAXBgNVBAoTEE1pbmNvbSBQdHkuIEx0ZC4xCzAJBgNVBAsT
AkNTMRswGQYDVQQDExJTU0xlYXkgZGVtbyBzZXJ2ZXIwHhcNOTYwMzIyMDc1OTA2
WhcNOTcwMzIyMDc1OTA2WjAWMRQwEgYDVQQDEwtFcmljIFlvdW5nZzBcMA0GCSqG
SIb3DQEBAQUAA0sAMEgCQQDCsBMcKeHwSeCtnLb0fcJNYp3AVf5V/WqW/1NCsMvV
xW4jrNHtUTLEKCjybS9pTWx2c7NBe9RAxAtkah0NX6d1AgMBAAGjMjAwMBEGCSqG
SIb3DQEJBxMEdGVzdDAbBgkqhkiG9w0BCQIWDk1pbmNvbSBQdHkgTHRkMA0GCSqG
SIb3DQEBBAUAA0EAJbrzErRgjy26Gb0RUOo2LtGRNE1FKiV0NrHyRR4eFW3+tgBF
z2WD78oJEb1JyVrEh+qf5Y6FBvNtJIDyNeFCoA==
-----END X509 CERTIFICATE-----

