issuer :/C=AU/SP=QLD/O=Mincom Pty. Ltd./OU=CS/CN=SSLeay demo server
subject:/C=AU/SP=Queensland/CN=Eric Young
serial :0111

Certificate:
    Data:
        Version: 2 (0x2)
        Serial Number: 273 (0x111)
        Signature Algorithm: md5withRSAEncryption
        Issuer: C=AU, SP=QLD, O=Mincom Pty. Ltd., OU=CS, 
                CN=SSLeay demo server
        Validity
            Not Before: Mar 24 09:22:38 1996
            Not After : Mar 24 09:22:38 1997
        Subject:C=AU, SP=Queensland, CN=Eric Young
        Subject Public Key Info:
            Public Key Algorithm: rsaEncryption
            Public Key: (512 bit)
                Modulus:
                    00:bc:95:9e:14:63:95:7c:c6:25:70:e3:e0:36:94:
                    d4:14:99:4a:46:30:14:c5:c5:a1:22:80:22:22:56:
                    c7:b6:bb:07:f2:f9:c2:6a:9f:2d:27:64:a0:2c:f0:
                    21:94:94:25:1a:a2:be:4b:b5:e8:ce:b3:7b:a2:50:
                    39:ce:8b:f7:19
                Exponent: 65537 (0x10001)
    Signature Algorithm: md5withRSAEncryption
        12:fc:03:c5:0f:62:65:b7:63:ff:53:a6:99:a8:07:1f:4e:1b:
        b3:2c:2a:c3:50:32:9d:f6:ce:88:d7:fb:90:0f:3b:f7:76:f9:
        46:91:70:4c:3e:0d:6f:93:86:6e:df:52:1e:cc:c9:ec:fd:ed:
        25:57:f3:18:46:5d:29:2c:e5:cc

-----BEGIN X509 CERTIFICATE-----
MIIBuzCCAWWgAwIBAgICAREwDQYJKoZIhvcNAQEEBQAwYDELMAkGA1UEBhMCQVUx
DDAKBgNVBAgTA1FMRDEZMBcGA1UEChMQTWluY29tIFB0eS4gTHRkLjELMAkGA1UE
CxMCQ1MxGzAZBgNVBAMTElNTTGVheSBkZW1vIHNlcnZlcjAeFw05NjAzMjQwOTIy
MzhaFw05NzAzMjQwOTIyMzhaMDcxCzAJBgNVBAYTAkFVMRMwEQYDVQQIEwpRdWVl
bnNsYW5kMRMwEQYDVQQDEwpFcmljIFlvdW5nMFwwDQYJKoZIhvcNAQEBBQADSwAw
SAJBALyVnhRjlXzGJXDj4DaU1BSZSkYwFMXFoSKAIiJWx7a7B/L5wmqfLSdkoCzw
IZSUJRqivku16M6ze6JQOc6L9xkCAwEAAaMyMDAwEQYJKoZIhvcNAQkHEwR0ZXN0
MBsGCSqGSIb3DQEJAhYOTWluY29tIFB0eSBMdGQwDQYJKoZIhvcNAQEEBQADQQAS
/APFD2Jlt2P/U6aZqAcfThuzLCrDUDKd9s6I1/uQDzv3dvlGkXBMPg1vk4Zu31Ie
zMns/e0lV/MYRl0pLOXM
-----END X509 CERTIFICATE-----

