issuer :/C=AU/SP=QLD/O=Mincom Pty. Ltd./OU=CS/CN=SSLeay demo server
subject:/CN=Fred
serial :0112

Certificate:
    Data:
        Version: 2 (0x2)
        Serial Number: 274 (0x112)
        Signature Algorithm: md5withRSAEncryption
        Issuer: C=AU, SP=QLD, O=Mincom Pty. Ltd., OU=CS, 
                CN=SSLeay demo server
        Validity
            Not Before: Mar 24 22:19:31 1996
            Not After : Mar 24 22:19:31 1997
        Subject:CN=Fred
        Subject Public Key Info:
            Public Key Algorithm: rsaEncryption
            Public Key: (512 bit)
                Modulus:
                    00:c0:47:11:bd:e2:bd:8d:c4:3e:9f:ba:8d:8c:32:
                    00:90:16:2c:31:32:09:e3:29:10:76:c4:17:a5:fa:
                    5e:5b:9a:b6:d9:10:54:ed:d3:59:6b:e7:5b:a4:51:
                    9e:e0:91:7f:dd:63:72:d5:da:63:cc:18:92:bf:e6:
                    6a:74:f7:00:f7
                Exponent: 65537 (0x10001)
    Signature Algorithm: md5withRSAEncryption
        1c:e7:4c:c2:0a:a0:94:b5:40:72:31:a4:3d:41:54:09:40:fb:
        e6:fc:33:91:3f:2c:e0:f2:1e:0b:5c:67:63:7d:ec:e9:30:3d:
        86:56:6f:09:e1:03:12:6a:fe:2b:32:d1:74:4e:1d:00:49:71:
        d6:72:a1:74:e7:9d:ec:00:e9:16

-----BEGIN X509 CERTIFICATE-----
MIIBijCCATSgAwIBAgICARIwDQYJKoZIhvcNAQEEBQAwYDELMAkGA1UEBhMCQVUx
DDAKBgNVBAgTA1FMRDEZMBcGA1UEChMQTWluY29tIFB0eS4gTHRkLjELMAkGA1UE
CxMCQ1MxGzAZBgNVBAMTElNTTGVheSBkZW1vIHNlcnZlcjAeFw05NjAzMjQyMjE5
MzFaFw05NzAzMjQyMjE5MzFaMA8xDTALBgNVBAMTBEZyZWQwXDANBgkqhkiG9w0B
AQEFAANLADBIAkEAwEcRveK9jcQ+n7qNjDIAkBYsMTIJ4ykQdsQXpfpeW5q22RBU
7dNZa+dbpFGe4JF/3WNy1dpjzBiSv+ZqdPcA9wIDAQABoykwJzARBgkqhkiG9w0B
CQcTBHRlc3QwEgYJKoZIhvcNAQkCFgVhZ2FpbjANBgkqhkiG9w0BAQQFAANBABzn
TMIKoJS1QHIxpD1BVAlA++b8M5E/LODyHgtcZ2N97OkwPYZWbwnhAxJq/isy0XRO
HQBJcdZyoXTnnewA6RY=
-----END X509 CERTIFICATE-----

