issuer :/C=AU/SP=QLD/O=Mincom Pty. Ltd./OU=CS/CN=SSLeay demo server
subject:/C=AU/CN=eay
serial :0113

Certificate:
    Data:
        Version: 2 (0x2)
        Serial Number: 275 (0x113)
        Signature Algorithm: md5withRSAEncryption
        Issuer: C=AU, SP=QLD, O=Mincom Pty. Ltd., OU=CS, 
                CN=SSLeay demo server
        Validity
            Not Before: Mar 24 22:49:34 1996
            Not After : Mar 24 22:49:34 1997
        Subject:C=AU, CN=eay
        Subject Public Key Info:
            Public Key Algorithm: rsaEncryption
            Public Key: (512 bit)
                Modulus:
                    00:c9:76:54:5f:50:2a:30:d4:92:ba:9e:7b:91:3b:
                    a4:71:2b:47:c2:ec:e9:fc:af:c2:a0:11:a0:8c:43:
                    f8:14:02:c1:cf:8c:b8:10:33:0c:db:46:38:07:ee:
                    90:32:bb:94:5a:58:24:65:cc:1d:68:dc:18:b8:1a:
                    06:5c:82:79:19
                Exponent: 65537 (0x10001)
    Signature Algorithm: md5withRSAEncryption
        27:a2:a5:71:f1:7c:99:1e:de:2a:f6:f5:8f:0c:31:ca:92:d4:
        17:af:ed:b3:33:a9:09:a3:04:68:e7:14:08:51:03:2d:4f:80:
        43:51:ac:2f:22:eb:0f:af:f7:a1:f2:d9:73:bc:8c:60:3d:07:
        d8:69:1f:0c:b0:74:57:da:2d:ac

-----BEGIN X509 CERTIFICATE-----
MIIBlDCCAT6gAwIBAgICARMwDQYJKoZIhvcNAQEEBQAwYDELMAkGA1UEBhMCQVUx
DDAKBgNVBAgTA1FMRDEZMBcGA1UEChMQTWluY29tIFB0eS4gTHRkLjELMAkGA1UE
CxMCQ1MxGzAZBgNVBAMTElNTTGVheSBkZW1vIHNlcnZlcjAeFw05NjAzMjQyMjQ5
MzRaFw05NzAzMjQyMjQ5MzRaMBsxCzAJBgNVBAYTAkFVMQwwCgYDVQQDEwNlYXkw
XDANBgkqhkiG9w0BAQEFAANLADBIAkEAyXZUX1AqMNSSup57kTukcStHwuzp/K/C
oBGgjEP4FALBz4y4EDMM20Y4B+6QMruUWlgkZcwdaNwYuBoGXIJ5GQIDAQABoycw
EQYJKoZIhvcNAQkHEwR0ZXN0MBIGCSqGSIb3DQEJAhYFYWdhaW4wDQYJKoZIhvcN
AQEEBQADQQAnoqVx8XyZHt4q9vWPDDHKktQXr+2zM6kJowRo5xQIUQMtT4BDUawv
IusPr/eh8tlzvIxgPQfYaR8MsHRX2i2s
-----END X509 CERTIFICATE-----

